; Function Attrs: mustprogress nofree norecurse nosync nounwind willreturn memory(none) uwtable
define ptr @ossl_cmp_bodytype_to_string(i32 noundef %0) local_unnamed_addr #3 {
  %or.cond = icmp ugt i32 %0, 26
  br i1 %or.cond, label %6, label %2

2:                                                ; preds = %1
  %3 = zext nneg i32 %0 to i64
  %4 = getelementptr inbounds nuw [27 x ptr], ptr @ossl_cmp_bodytype_to_string.type_names, i64 0, i64 %3
  %5 = load ptr, ptr %4, align 8, !tbaa !16
  br label %6

6:                                                ; preds = %1, %2
  %.0 = phi ptr [ %5, %2 ], [ @.str.28, %1 ]
  ret ptr %.0
}